target datalayout = "e-m:e-p270:32:32-p271:32:32-p272:64:64-i64:64-i128:128-f80:128-n8:16:32:64-S128"
target triple = "x86_64-pc-linux-gnu"

%struct.pointf_s = type { double, double }
%struct.arrowtype_t = type { i32, double, ptr, ptr }
%struct.boxf = type { %struct.pointf_s, %struct.pointf_s }
%struct.GVJ_s = type { ptr, ptr, ptr, ptr, ptr, ptr, i32, ptr, ptr, ptr, ptr, i64, i64, ptr, i32, %struct.gvplugin_active_render_s, %struct.gvplugin_active_device_s, %struct.gvplugin_active_loadimage_t, ptr, %struct.pointf_s, i8, ptr, i32, ptr, i8, ptr, i32, i32, i32, %struct.point, %struct.point, %struct.point, %struct.point, %struct.point, i32, %struct.boxf, %struct.pointf_s, %struct.boxf, %struct.boxf, %struct.pointf_s, %struct.pointf_s, double, i32, %struct.pointf_s, %struct.boxf, %struct.pointf_s, %struct.pointf_s, i32, i32, %struct.box, %struct.box, %struct.pointf_s, %struct.pointf_s, %struct.pointf_s, i8, i8, i8, i8, i8, i8, %struct.pointf_s, %struct.pointf_s, ptr, ptr, ptr, ptr, ptr, ptr, i64, ptr }
%struct.gvplugin_active_render_s = type { ptr, i32, ptr, ptr }
%struct.gvplugin_active_device_s = type { ptr, i32, ptr, ptr }
%struct.gvplugin_active_loadimage_t = type { ptr, i32, ptr }
%struct.point = type { i32, i32 }
%struct.box = type { %struct.point, %struct.point }
%struct.obj_state_s = type { ptr, i32, %union.anon.1, i32, %struct.color_s, %struct.color_s, %struct.color_s, i32, double, i32, i32, double, ptr, double, double, double, ptr, ptr, ptr, ptr, ptr, ptr, ptr, ptr, ptr, ptr, ptr, ptr, ptr, ptr, ptr, ptr, ptr, i16, i32, i64, ptr, i64, ptr, ptr, i32, ptr, i32, ptr }
%union.anon.1 = type { ptr }
%struct.color_s = type { %union.anon.2, i32 }
%union.anon.2 = type { [4 x double] }
%struct.GVC_s = type { %struct.GVCOMMON_s, ptr, i8, ptr, i32, ptr, ptr, [5 x ptr], [5 x ptr], ptr, ptr, %struct.dtdisc_s_, ptr, %struct.gvplugin_active_textlayout_s, ptr, ptr, ptr, %struct.gvplugin_active_layout_s, ptr, ptr, ptr, %struct.pointf_s, %struct.pointf_s, %struct.pointf_s, %struct.point, %struct.boxf, i32, i8, i8, i8, ptr, ptr, ptr, ptr, i32, ptr, ptr, double, ptr, %struct.color_s, i32 }
%struct.GVCOMMON_s = type { ptr, ptr, i32, i8, i8, ptr, ptr, ptr, i32, ptr, i32 }
%struct.dtdisc_s_ = type { i32, i32, i32, ptr, ptr, ptr }
%struct.gvplugin_active_textlayout_s = type { ptr, i32, ptr }
%struct.gvplugin_active_layout_s = type { ptr, i32, ptr, ptr }

; Function Attrs: nounwind uwtable
define internal { double, double } @arrow_gen_type(ptr noundef %0, double %1, double %2, double %3, double %4, double noundef %5, double noundef %6, i32 noundef %7) #0 {
  %9 = alloca %struct.pointf_s, align 8
  %10 = alloca %struct.pointf_s, align 8
  %11 = alloca %struct.pointf_s, align 8
  %12 = alloca ptr, align 8
  %13 = alloca double, align 8
  %14 = alloca double, align 8
  %15 = alloca i32, align 4
  %16 = alloca i32, align 4
  %17 = alloca i64, align 8
  %18 = alloca i32, align 4
  %19 = alloca ptr, align 8
  %20 = alloca %struct.pointf_s, align 8
  %21 = getelementptr inbounds nuw { double, double }, ptr %10, i32 0, i32 0
  store double %1, ptr %21, align 8
  %22 = getelementptr inbounds nuw { double, double }, ptr %10, i32 0, i32 1
  store double %2, ptr %22, align 8
  %23 = getelementptr inbounds nuw { double, double }, ptr %11, i32 0, i32 0
  store double %3, ptr %23, align 8
  %24 = getelementptr inbounds nuw { double, double }, ptr %11, i32 0, i32 1
  store double %4, ptr %24, align 8
  store ptr %0, ptr %12, align 8, !tbaa !73
  store double %5, ptr %13, align 8, !tbaa !53
  store double %6, ptr %14, align 8, !tbaa !53
  store i32 %7, ptr %15, align 4, !tbaa !10
  call void @llvm.lifetime.start.p0(i64 4, ptr %16) #9
  %25 = load i32, ptr %15, align 4, !tbaa !10
  %26 = and i32 %25, 15
  store i32 %26, ptr %16, align 4, !tbaa !10
  call void @llvm.lifetime.start.p0(i64 8, ptr %17) #9
  store i64 0, ptr %17, align 8, !tbaa !50
  br label %27

27:                                               ; preds = %80, %8
  %28 = load i64, ptr %17, align 8, !tbaa !50
  %29 = icmp ult i64 %28, 8
  br i1 %29, label %31, label %30

30:                                               ; preds = %27
  store i32 2, ptr %18, align 4
  br label %83

31:                                               ; preds = %27
  call void @llvm.lifetime.start.p0(i64 8, ptr %19) #9
  %32 = load i64, ptr %17, align 8, !tbaa !50
  %33 = getelementptr inbounds nuw [8 x %struct.arrowtype_t], ptr @Arrowtypes, i64 0, i64 %32
  store ptr %33, ptr %19, align 8, !tbaa !17
  %34 = load i32, ptr %16, align 4, !tbaa !10
  %35 = load ptr, ptr %19, align 8, !tbaa !17
  %36 = getelementptr inbounds nuw %struct.arrowtype_t, ptr %35, i32 0, i32 0
  %37 = load i32, ptr %36, align 8, !tbaa !59
  %38 = icmp eq i32 %34, %37
  br i1 %38, label %39, label %76

39:                                               ; preds = %31
  %40 = load ptr, ptr %19, align 8, !tbaa !17
  %41 = getelementptr inbounds nuw %struct.arrowtype_t, ptr %40, i32 0, i32 1
  %42 = load double, ptr %41, align 8, !tbaa !62
  %43 = load double, ptr %13, align 8, !tbaa !53
  %44 = fmul double %42, %43
  %45 = getelementptr inbounds nuw %struct.pointf_s, ptr %11, i32 0, i32 0
  %46 = load double, ptr %45, align 8, !tbaa !57
  %47 = fmul double %46, %44
  store double %47, ptr %45, align 8, !tbaa !57
  %48 = load ptr, ptr %19, align 8, !tbaa !17
  %49 = getelementptr inbounds nuw %struct.arrowtype_t, ptr %48, i32 0, i32 1
  %50 = load double, ptr %49, align 8, !tbaa !62
  %51 = load double, ptr %13, align 8, !tbaa !53
  %52 = fmul double %50, %51
  %53 = getelementptr inbounds nuw %struct.pointf_s, ptr %11, i32 0, i32 1
  %54 = load double, ptr %53, align 8, !tbaa !58
  %55 = fmul double %54, %52
  store double %55, ptr %53, align 8, !tbaa !58
  call void @llvm.lifetime.start.p0(i64 16, ptr %20) #9
  %56 = load ptr, ptr %19, align 8, !tbaa !17
  %57 = getelementptr inbounds nuw %struct.arrowtype_t, ptr %56, i32 0, i32 2
  %58 = load ptr, ptr %57, align 8, !tbaa !111
  %59 = load ptr, ptr %12, align 8, !tbaa !73
  %60 = load double, ptr %13, align 8, !tbaa !53
  %61 = load double, ptr %14, align 8, !tbaa !53
  %62 = load i32, ptr %15, align 4, !tbaa !10
  %63 = getelementptr inbounds nuw { double, double }, ptr %10, i32 0, i32 0
  %64 = load double, ptr %63, align 8
  %65 = getelementptr inbounds nuw { double, double }, ptr %10, i32 0, i32 1
  %66 = load double, ptr %65, align 8
  %67 = getelementptr inbounds nuw { double, double }, ptr %11, i32 0, i32 0
  %68 = load double, ptr %67, align 8
  %69 = getelementptr inbounds nuw { double, double }, ptr %11, i32 0, i32 1
  %70 = load double, ptr %69, align 8
  %71 = call { double, double } %58(ptr noundef %59, double %64, double %66, double %68, double %70, double noundef %60, double noundef %61, i32 noundef %62)
  %72 = getelementptr inbounds nuw { double, double }, ptr %20, i32 0, i32 0
  %73 = extractvalue { double, double } %71, 0
  store double %73, ptr %72, align 8
  %74 = getelementptr inbounds nuw { double, double }, ptr %20, i32 0, i32 1
  %75 = extractvalue { double, double } %71, 1
  store double %75, ptr %74, align 8
  call void @llvm.memcpy.p0.p0.i64(ptr align 8 %10, ptr align 8 %20, i64 16, i1 false), !tbaa.struct !56
  call void @llvm.lifetime.end.p0(i64 16, ptr %20) #9
  store i32 2, ptr %18, align 4
  br label %77

76:                                               ; preds = %31
  store i32 0, ptr %18, align 4
  br label %77

77:                                               ; preds = %76, %39
  call void @llvm.lifetime.end.p0(i64 8, ptr %19) #9
  %78 = load i32, ptr %18, align 4
  switch i32 %78, label %83 [
    i32 0, label %79
  ]

79:                                               ; preds = %77
  br label %80

80:                                               ; preds = %79
  %81 = load i64, ptr %17, align 8, !tbaa !50
  %82 = add i64 %81, 1
  store i64 %82, ptr %17, align 8, !tbaa !50
  br label %27, !llvm.loop !112

83:                                               ; preds = %77, %30
  call void @llvm.lifetime.end.p0(i64 8, ptr %17) #9
  br label %84

84:                                               ; preds = %83
  call void @llvm.memcpy.p0.p0.i64(ptr align 8 %9, ptr align 8 %10, i64 16, i1 false), !tbaa.struct !56
  store i32 1, ptr %18, align 4
  call void @llvm.lifetime.end.p0(i64 4, ptr %16) #9
  %85 = load { double, double }, ptr %9, align 8
  ret { double, double } %85
}

; Function Attrs: nounwind uwtable
define void @arrow_gen(ptr noundef %0, i32 noundef %1, double %2, double %3, double %4, double %5, double noundef %6, double noundef %7, i32 noundef %8) #0 {
  %10 = alloca %struct.pointf_s, align 8
  %11 = alloca %struct.pointf_s, align 8
  %12 = alloca ptr, align 8
  %13 = alloca i32, align 4
  %14 = alloca double, align 8
  %15 = alloca double, align 8
  %16 = alloca i32, align 4
  %17 = alloca ptr, align 8
  %18 = alloca double, align 8
  %19 = alloca i32, align 4
  %20 = alloca i32, align 4
  %21 = alloca i32, align 4
  %22 = alloca i32, align 4
  %23 = alloca %struct.pointf_s, align 8
  %24 = getelementptr inbounds nuw { double, double }, ptr %10, i32 0, i32 0
  store double %2, ptr %24, align 8
  %25 = getelementptr inbounds nuw { double, double }, ptr %10, i32 0, i32 1
  store double %3, ptr %25, align 8
  %26 = getelementptr inbounds nuw { double, double }, ptr %11, i32 0, i32 0
  store double %4, ptr %26, align 8
  %27 = getelementptr inbounds nuw { double, double }, ptr %11, i32 0, i32 1
  store double %5, ptr %27, align 8
  store ptr %0, ptr %12, align 8, !tbaa !73
  store i32 %1, ptr %13, align 4, !tbaa !10
  store double %6, ptr %14, align 8, !tbaa !53
  store double %7, ptr %15, align 8, !tbaa !53
  store i32 %8, ptr %16, align 4, !tbaa !10
  call void @llvm.lifetime.start.p0(i64 8, ptr %17) #9
  %28 = load ptr, ptr %12, align 8, !tbaa !73
  %29 = getelementptr inbounds nuw %struct.GVJ_s, ptr %28, i32 0, i32 4
  %30 = load ptr, ptr %29, align 8, !tbaa !75
  store ptr %30, ptr %17, align 8, !tbaa !91
  call void @llvm.lifetime.start.p0(i64 8, ptr %18) #9
  call void @llvm.lifetime.start.p0(i64 4, ptr %19) #9
  call void @llvm.lifetime.start.p0(i64 4, ptr %20) #9
  %31 = load ptr, ptr %17, align 8, !tbaa !91
  %32 = getelementptr inbounds nuw %struct.obj_state_s, ptr %31, i32 0, i32 3
  %33 = load i32, ptr %32, align 8, !tbaa !92
  store i32 %33, ptr %20, align 4, !tbaa !10
  %34 = load i32, ptr %13, align 4, !tbaa !10
  %35 = load ptr, ptr %17, align 8, !tbaa !91
  %36 = getelementptr inbounds nuw %struct.obj_state_s, ptr %35, i32 0, i32 3
  store i32 %34, ptr %36, align 8, !tbaa !92
  %37 = load ptr, ptr %12, align 8, !tbaa !73
  %38 = load ptr, ptr %12, align 8, !tbaa !73
  %39 = getelementptr inbounds nuw %struct.GVJ_s, ptr %38, i32 0, i32 0
  %40 = load ptr, ptr %39, align 8, !tbaa !97
  %41 = getelementptr inbounds nuw %struct.GVC_s, ptr %40, i32 0, i32 38
  %42 = load ptr, ptr %41, align 8, !tbaa !98
  call void @gvrender_set_style(ptr noundef %37, ptr noundef %42)
  %43 = load ptr, ptr %12, align 8, !tbaa !73
  %44 = load double, ptr %15, align 8, !tbaa !53
  call void @gvrender_set_penwidth(ptr noundef %43, double noundef %44)
  %45 = getelementptr inbounds nuw %struct.pointf_s, ptr %10, i32 0, i32 0
  %46 = load double, ptr %45, align 8, !tbaa !57
  %47 = getelementptr inbounds nuw %struct.pointf_s, ptr %11, i32 0, i32 0
  %48 = load double, ptr %47, align 8, !tbaa !57
  %49 = fsub double %48, %46
  store double %49, ptr %47, align 8, !tbaa !57
  %50 = getelementptr inbounds nuw %struct.pointf_s, ptr %10, i32 0, i32 1
  %51 = load double, ptr %50, align 8, !tbaa !58
  %52 = getelementptr inbounds nuw %struct.pointf_s, ptr %11, i32 0, i32 1
  %53 = load double, ptr %52, align 8, !tbaa !58
  %54 = fsub double %53, %51
  store double %54, ptr %52, align 8, !tbaa !58
  %55 = getelementptr inbounds nuw %struct.pointf_s, ptr %11, i32 0, i32 0
  %56 = load double, ptr %55, align 8, !tbaa !57
  %57 = getelementptr inbounds nuw %struct.pointf_s, ptr %11, i32 0, i32 1
  %58 = load double, ptr %57, align 8, !tbaa !58
  %59 = call double @hypot(double noundef %56, double noundef %58) #9, !tbaa !10
  %60 = fadd double %59, 1.000000e-04
  %61 = fdiv double 1.000000e+01, %60
  store double %61, ptr %18, align 8, !tbaa !53
  %62 = getelementptr inbounds nuw %struct.pointf_s, ptr %11, i32 0, i32 0
  %63 = load double, ptr %62, align 8, !tbaa !57
  %64 = fcmp oge double %63, 0.000000e+00
  %65 = select i1 %64, double 1.000000e-04, double -1.000000e-04
  %66 = getelementptr inbounds nuw %struct.pointf_s, ptr %11, i32 0, i32 0
  %67 = load double, ptr %66, align 8, !tbaa !57
  %68 = fadd double %67, %65
  store double %68, ptr %66, align 8, !tbaa !57
  %69 = getelementptr inbounds nuw %struct.pointf_s, ptr %11, i32 0, i32 1
  %70 = load double, ptr %69, align 8, !tbaa !58
  %71 = fcmp oge double %70, 0.000000e+00
  %72 = select i1 %71, double 1.000000e-04, double -1.000000e-04
  %73 = getelementptr inbounds nuw %struct.pointf_s, ptr %11, i32 0, i32 1
  %74 = load double, ptr %73, align 8, !tbaa !58
  %75 = fadd double %74, %72
  store double %75, ptr %73, align 8, !tbaa !58
  %76 = load double, ptr %18, align 8, !tbaa !53
  %77 = getelementptr inbounds nuw %struct.pointf_s, ptr %11, i32 0, i32 0
  %78 = load double, ptr %77, align 8, !tbaa !57
  %79 = fmul double %78, %76
  store double %79, ptr %77, align 8, !tbaa !57
  %80 = load double, ptr %18, align 8, !tbaa !53
  %81 = getelementptr inbounds nuw %struct.pointf_s, ptr %11, i32 0, i32 1
  %82 = load double, ptr %81, align 8, !tbaa !58
  %83 = fmul double %82, %80
  store double %83, ptr %81, align 8, !tbaa !58
  store i32 0, ptr %19, align 4, !tbaa !10
  br label %84

84:                                               ; preds = %117, %9
  %85 = load i32, ptr %19, align 4, !tbaa !10
  %86 = icmp slt i32 %85, 4
  br i1 %86, label %87, label %120

87:                                               ; preds = %84
  call void @llvm.lifetime.start.p0(i64 4, ptr %21) #9
  %88 = load i32, ptr %16, align 4, !tbaa !10
  %89 = load i32, ptr %19, align 4, !tbaa !10
  %90 = mul nsw i32 %89, 8
  %91 = lshr i32 %88, %90
  %92 = and i32 %91, 255
  store i32 %92, ptr %21, align 4, !tbaa !10
  %93 = load i32, ptr %21, align 4, !tbaa !10
  %94 = icmp eq i32 %93, 0
  br i1 %94, label %95, label %96

95:                                               ; preds = %87
  store i32 2, ptr %22, align 4
  br label %114

96:                                               ; preds = %87
  call void @llvm.lifetime.start.p0(i64 16, ptr %23) #9
  %97 = load ptr, ptr %12, align 8, !tbaa !73
  %98 = load double, ptr %14, align 8, !tbaa !53
  %99 = load double, ptr %15, align 8, !tbaa !53
  %100 = load i32, ptr %21, align 4, !tbaa !10
  %101 = getelementptr inbounds nuw { double, double }, ptr %10, i32 0, i32 0
  %102 = load double, ptr %101, align 8
  %103 = getelementptr inbounds nuw { double, double }, ptr %10, i32 0, i32 1
  %104 = load double, ptr %103, align 8
  %105 = getelementptr inbounds nuw { double, double }, ptr %11, i32 0, i32 0
  %106 = load double, ptr %105, align 8
  %107 = getelementptr inbounds nuw { double, double }, ptr %11, i32 0, i32 1
  %108 = load double, ptr %107, align 8
  %109 = call { double, double } @arrow_gen_type(ptr noundef %97, double %102, double %104, double %106, double %108, double noundef %98, double noundef %99, i32 noundef %100)
  %110 = getelementptr inbounds nuw { double, double }, ptr %23, i32 0, i32 0
  %111 = extractvalue { double, double } %109, 0
  store double %111, ptr %110, align 8
  %112 = getelementptr inbounds nuw { double, double }, ptr %23, i32 0, i32 1
  %113 = extractvalue { double, double } %109, 1
  store double %113, ptr %112, align 8
  call void @llvm.memcpy.p0.p0.i64(ptr align 8 %10, ptr align 8 %23, i64 16, i1 false), !tbaa.struct !56
  call void @llvm.lifetime.end.p0(i64 16, ptr %23) #9
  store i32 0, ptr %22, align 4
  br label %114

114:                                              ; preds = %96, %95
  call void @llvm.lifetime.end.p0(i64 4, ptr %21) #9
  %115 = load i32, ptr %22, align 4
  switch i32 %115, label %124 [
    i32 0, label %116
    i32 2, label %120
  ]

116:                                              ; preds = %114
  br label %117

117:                                              ; preds = %116
  %118 = load i32, ptr %19, align 4, !tbaa !10
  %119 = add nsw i32 %118, 1
  store i32 %119, ptr %19, align 4, !tbaa !10
  br label %84, !llvm.loop !110

120:                                              ; preds = %114, %84
  %121 = load i32, ptr %20, align 4, !tbaa !10
  %122 = load ptr, ptr %17, align 8, !tbaa !91
  %123 = getelementptr inbounds nuw %struct.obj_state_s, ptr %122, i32 0, i32 3
  store i32 %121, ptr %123, align 8, !tbaa !92
  call void @llvm.lifetime.end.p0(i64 4, ptr %20) #9
  call void @llvm.lifetime.end.p0(i64 4, ptr %19) #9
  call void @llvm.lifetime.end.p0(i64 8, ptr %18) #9
  call void @llvm.lifetime.end.p0(i64 8, ptr %17) #9
  ret void

124:                                              ; preds = %114
  unreachable
}