; Function Attrs: nounwind uwtable
define void @arrow_gen(ptr noundef %0, i32 noundef %1, double %2, double %3, double %4, double %5, double noundef %6, double noundef %7, i32 noundef %8) local_unnamed_addr #0 {
  %10 = getelementptr inbounds nuw i8, ptr %0, i64 32
  %11 = load ptr, ptr %10, align 8, !tbaa !67
  %12 = getelementptr inbounds nuw i8, ptr %11, i64 24
  %13 = load i32, ptr %12, align 8, !tbaa !84
  store i32 %1, ptr %12, align 8, !tbaa !84
  %14 = load ptr, ptr %0, align 8, !tbaa !89
  %15 = getelementptr inbounds nuw i8, ptr %14, i64 528
  %16 = load ptr, ptr %15, align 8, !tbaa !90
  tail call void @gvrender_set_style(ptr noundef nonnull %0, ptr noundef %16) #12
  tail call void @gvrender_set_penwidth(ptr noundef nonnull %0, double noundef %7) #12
  %17 = fsub double %4, %2
  %18 = fsub double %5, %3
  %19 = tail call double @hypot(double noundef %17, double noundef %18) #12, !tbaa !3
  %20 = fadd double %19, 1.000000e-04
  %21 = fdiv double 1.000000e+01, %20
  %22 = fcmp oge double %17, 0.000000e+00
  %23 = select i1 %22, double 1.000000e-04, double -1.000000e-04
  %24 = fadd double %17, %23
  %25 = fcmp oge double %18, 0.000000e+00
  %26 = select i1 %25, double 1.000000e-04, double -1.000000e-04
  %27 = fadd double %18, %26
  %28 = fmul double %24, %21
  %29 = fmul double %27, %21
  br label %30

30:                                               ; preds = %9, %52
  %.sroa.434.047 = phi double [ %3, %9 ], [ %54, %52 ]
  %.sroa.032.046 = phi double [ %2, %9 ], [ %53, %52 ]
  %.03645 = phi i32 [ 0, %9 ], [ %55, %52 ]
  %31 = shl nuw nsw i32 %.03645, 3
  %32 = lshr i32 %8, %31
  %33 = and i32 %32, 255
  %34 = icmp eq i32 %33, 0
  br i1 %34, label %56, label %35

35:                                               ; preds = %30
  %36 = and i32 %32, 15
  br label %39

37:                                               ; preds = %39
  %38 = add nuw nsw i64 %.02227.i, 1
  %exitcond.not.i = icmp eq i64 %38, 8
  br i1 %exitcond.not.i, label %.loopexit.loopexit.i, label %39, !llvm.loop !103

39:                                               ; preds = %37, %35
  %.02227.i = phi i64 [ 0, %35 ], [ %38, %37 ]
  %40 = getelementptr inbounds nuw [8 x %struct.arrowtype_t], ptr @Arrowtypes, i64 0, i64 %.02227.i
  %41 = load i32, ptr %40, align 16, !tbaa !50
  %.not.i = icmp eq i32 %36, %41
  br i1 %.not.i, label %.thread.i, label %37

.thread.i:                                        ; preds = %39
  %42 = getelementptr inbounds nuw i8, ptr %40, i64 8
  %43 = load double, ptr %42, align 8, !tbaa !53
  %44 = fmul double %6, %43
  %45 = fmul double %28, %44
  %46 = fmul double %29, %44
  %47 = getelementptr inbounds nuw i8, ptr %40, i64 16
  %48 = load ptr, ptr %47, align 8, !tbaa !104
  %49 = tail call { double, double } %48(ptr noundef nonnull %0, double %.sroa.032.046, double %.sroa.434.047, double %45, double %46, double noundef %6, double noundef %7, i32 noundef range(i32 1, 256) %33) #12
  br label %52

.loopexit.loopexit.i:                             ; preds = %37
  %50 = insertvalue { double, double } poison, double %.sroa.032.046, 0
  %51 = insertvalue { double, double } %50, double %.sroa.434.047, 1
  br label %52

52:                                               ; preds = %.loopexit.loopexit.i, %.thread.i
  %.fca.1.insert.merged.i = phi { double, double } [ %49, %.thread.i ], [ %51, %.loopexit.loopexit.i ]
  %53 = extractvalue { double, double } %.fca.1.insert.merged.i, 0
  %54 = extractvalue { double, double } %.fca.1.insert.merged.i, 1
  %55 = add nuw nsw i32 %.03645, 1
  %exitcond.not = icmp eq i32 %55, 4
  br i1 %exitcond.not, label %56, label %30, !llvm.loop !105

56:                                               ; preds = %30, %52
  store i32 %13, ptr %12, align 8, !tbaa !84
  ret void
}